target datalayout = "e-m:e-p270:32:32-p271:32:32-p272:64:64-i64:64-i128:128-f80:128-n8:16:32:64-S128"
target triple = "x86_64-pc-linux-gnu"

%class.Node = type <{ ptr, ptr, ptr, i32, i32, i32, i32, i32, i32, i32, [4 x i8] }>
%class.ParsePredicateNode = type <{ %class.IfNode.base, i32, i8, [7 x i8] }>
%class.IfNode.base = type { %class.MultiBranchNode.base, float, float }
%class.MultiBranchNode.base = type { %class.MultiNode.base }
%class.MultiNode.base = type { %class.Node.base }
%class.Node.base = type <{ ptr, ptr, ptr, i32, i32, i32, i32, i32, i32, i32 }>

; Function Attrs: mustprogress nounwind uwtable
define linkonce_odr hidden noundef i32 @_ZNK18ParsePredicateNode12deopt_reasonEv(ptr noundef nonnull align 8 dereferenceable(65) %0) #1 comdat align 2 {
  %2 = alloca ptr, align 8
  store ptr %0, ptr %2, align 8
  %3 = load ptr, ptr %2, align 8
  %4 = getelementptr inbounds %class.ParsePredicateNode, ptr %3, i32 0, i32 1
  %5 = load i32, ptr %4, align 4
  ret i32 %5
}

; Function Attrs: mustprogress nounwind uwtable
define linkonce_odr hidden noundef ptr @_ZNK4Node17as_ParsePredicateEv(ptr noundef nonnull align 8 dereferenceable(52) %0) #1 comdat align 2 {
  %2 = alloca ptr, align 8
  store ptr %0, ptr %2, align 8
  %3 = load ptr, ptr %2, align 8
  ret ptr %3
}

; Function Attrs: mustprogress nounwind uwtable
define linkonce_odr hidden noundef zeroext i1 @_ZNK4Node17is_ParsePredicateEv(ptr noundef nonnull align 8 dereferenceable(52) %0) #1 comdat align 2 {
  %2 = alloca ptr, align 8
  store ptr %0, ptr %2, align 8
  %3 = load ptr, ptr %2, align 8
  %4 = getelementptr inbounds %class.Node, ptr %3, i32 0, i32 8
  %5 = load i32, ptr %4, align 4
  %6 = and i32 %5, 511
  %7 = icmp eq i32 %6, 277
  ret i1 %7
}

; Function Attrs: mustprogress nounwind uwtable
define linkonce_odr hidden noundef ptr @_ZNK4Node2inEj(ptr noundef nonnull align 8 dereferenceable(52) %0, i32 noundef %1) #1 comdat align 2 {
  %3 = alloca ptr, align 8
  %4 = alloca i32, align 4
  store ptr %0, ptr %3, align 8
  store i32 %1, ptr %4, align 4
  %5 = load ptr, ptr %3, align 8
  %6 = getelementptr inbounds %class.Node, ptr %5, i32 0, i32 1
  %7 = load ptr, ptr %6, align 8
  %8 = load i32, ptr %4, align 4
  %9 = zext i32 %8 to i64
  %10 = getelementptr inbounds ptr, ptr %7, i64 %9
  %11 = load ptr, ptr %10, align 8
  ret ptr %11
}

; Function Attrs: mustprogress nounwind uwtable
define linkonce_odr hidden noundef zeroext i1 @_ZNK4Node9is_IfTrueEv(ptr noundef nonnull align 8 dereferenceable(52) %0) #1 comdat align 2 {
  %2 = alloca ptr, align 8
  store ptr %0, ptr %2, align 8
  %3 = load ptr, ptr %2, align 8
  %4 = getelementptr inbounds %class.Node, ptr %3, i32 0, i32 8
  %5 = load i32, ptr %4, align 4
  %6 = and i32 %5, 255
  %7 = icmp eq i32 %6, 200
  ret i1 %7
}

; Function Attrs: mustprogress nounwind uwtable
define hidden noundef ptr @_ZN14ParsePredicate20init_parse_predicateEP4NodeN14Deoptimization11DeoptReasonE(ptr noundef %0, i32 noundef %1) #1 align 2 {
  %3 = alloca ptr, align 8
  %4 = alloca ptr, align 8
  %5 = alloca i32, align 4
  %6 = alloca ptr, align 8
  store ptr %0, ptr %4, align 8
  store i32 %1, ptr %5, align 4
  %7 = load ptr, ptr %4, align 8
  %8 = call noundef zeroext i1 @_ZNK4Node9is_IfTrueEv(ptr noundef nonnull align 8 dereferenceable(52) %7)
  br i1 %8, label %9, label %24

9:                                                ; preds = %2
  %10 = load ptr, ptr %4, align 8
  %11 = call noundef ptr @_ZNK4Node2inEj(ptr noundef nonnull align 8 dereferenceable(52) %10, i32 noundef 0)
  %12 = call noundef zeroext i1 @_ZNK4Node17is_ParsePredicateEv(ptr noundef nonnull align 8 dereferenceable(52) %11)
  br i1 %12, label %13, label %24

13:                                               ; preds = %9
  %14 = load ptr, ptr %4, align 8
  %15 = call noundef ptr @_ZNK4Node2inEj(ptr noundef nonnull align 8 dereferenceable(52) %14, i32 noundef 0)
  %16 = call noundef ptr @_ZNK4Node17as_ParsePredicateEv(ptr noundef nonnull align 8 dereferenceable(52) %15)
  store ptr %16, ptr %6, align 8
  %17 = load ptr, ptr %6, align 8
  %18 = call noundef i32 @_ZNK18ParsePredicateNode12deopt_reasonEv(ptr noundef nonnull align 8 dereferenceable(65) %17)
  %19 = load i32, ptr %5, align 4
  %20 = icmp eq i32 %18, %19
  br i1 %20, label %21, label %23

21:                                               ; preds = %13
  %22 = load ptr, ptr %6, align 8
  store ptr %22, ptr %3, align 8
  br label %25

23:                                               ; preds = %13
  br label %24

24:                                               ; preds = %23, %9, %2
  store ptr null, ptr %3, align 8
  br label %25

25:                                               ; preds = %24, %21
  %26 = load ptr, ptr %3, align 8
  ret ptr %26
}