; Function Attrs: mustprogress nofree norecurse nosync nounwind willreturn memory(read, inaccessiblemem: none) uwtable
define hidden noundef ptr @_ZN14ParsePredicate20init_parse_predicateEP4NodeN14Deoptimization11DeoptReasonE(ptr nocapture noundef readonly %0, i32 noundef %1) local_unnamed_addr #1 align 2 {
  %3 = getelementptr inbounds i8, ptr %0, i64 44
  %4 = load i32, ptr %3, align 4
  %5 = and i32 %4, 255
  %6 = icmp eq i32 %5, 200
  br i1 %6, label %7, label %19

7:                                                ; preds = %2
  %8 = getelementptr inbounds i8, ptr %0, i64 8
  %9 = load ptr, ptr %8, align 8
  %10 = load ptr, ptr %9, align 8
  %11 = getelementptr inbounds i8, ptr %10, i64 44
  %12 = load i32, ptr %11, align 4
  %13 = and i32 %12, 511
  %14 = icmp eq i32 %13, 277
  br i1 %14, label %15, label %19

15:                                               ; preds = %7
  %16 = getelementptr inbounds i8, ptr %10, i64 60
  %17 = load i32, ptr %16, align 4
  %18 = icmp eq i32 %17, %1
  br i1 %18, label %20, label %19

19:                                               ; preds = %15, %7, %2
  br label %20

20:                                               ; preds = %15, %19
  %.0 = phi ptr [ null, %19 ], [ %10, %15 ]
  ret ptr %.0
}